target datalayout = "e-m:e-p270:32:32-p271:32:32-p272:64:64-i64:64-i128:128-f80:128-n8:16:32:64-S128"
target triple = "x86_64-pc-linux-gnu"

%struct.bignum_st = type { ptr, i32, i32, i32, i32 }

@.str = private unnamed_addr constant [130 x i8] c"generated/home/dtcxzyw/WorkSpace/Projects/compilers/llvm-opt-benchmark/bench/libquic/libquic/boringssl/crypto/bn/exponentiation.c\00", align 1

; Function Attrs: nounwind uwtable
define hidden i32 @BN_exp(ptr noundef %0, ptr noundef %1, ptr noundef %2, ptr noundef %3) #0 {
  %5 = alloca i32, align 4
  %6 = alloca ptr, align 8
  %7 = alloca ptr, align 8
  %8 = alloca ptr, align 8
  %9 = alloca ptr, align 8
  %10 = alloca i32, align 4
  %11 = alloca i32, align 4
  %12 = alloca i32, align 4
  %13 = alloca ptr, align 8
  %14 = alloca ptr, align 8
  %15 = alloca i32, align 4
  store ptr %0, ptr %6, align 8, !tbaa !6
  store ptr %1, ptr %7, align 8, !tbaa !6
  store ptr %2, ptr %8, align 8, !tbaa !6
  store ptr %3, ptr %9, align 8, !tbaa !11
  call void @llvm.lifetime.start.p0(i64 4, ptr %10) #7
  call void @llvm.lifetime.start.p0(i64 4, ptr %11) #7
  call void @llvm.lifetime.start.p0(i64 4, ptr %12) #7
  store i32 0, ptr %12, align 4, !tbaa !13
  call void @llvm.lifetime.start.p0(i64 8, ptr %13) #7
  call void @llvm.lifetime.start.p0(i64 8, ptr %14) #7
  %16 = load ptr, ptr %8, align 8, !tbaa !6
  %17 = getelementptr inbounds nuw %struct.bignum_st, ptr %16, i32 0, i32 4
  %18 = load i32, ptr %17, align 4, !tbaa !15
  %19 = and i32 %18, 4
  %20 = icmp ne i32 %19, 0
  br i1 %20, label %21, label %22

21:                                               ; preds = %4
  call void @ERR_put_error(i32 noundef 3, i32 noundef 0, i32 noundef 66, ptr noundef @.str, i32 noundef 145)
  store i32 0, ptr %5, align 4
  store i32 1, ptr %15, align 4
  br label %114

22:                                               ; preds = %4
  %23 = load ptr, ptr %9, align 8, !tbaa !11
  call void @BN_CTX_start(ptr noundef %23)
  %24 = load ptr, ptr %6, align 8, !tbaa !6
  %25 = load ptr, ptr %7, align 8, !tbaa !6
  %26 = icmp eq ptr %24, %25
  br i1 %26, label %31, label %27

27:                                               ; preds = %22
  %28 = load ptr, ptr %6, align 8, !tbaa !6
  %29 = load ptr, ptr %8, align 8, !tbaa !6
  %30 = icmp eq ptr %28, %29
  br i1 %30, label %31, label %34

31:                                               ; preds = %27, %22
  %32 = load ptr, ptr %9, align 8, !tbaa !11
  %33 = call ptr @BN_CTX_get(ptr noundef %32)
  store ptr %33, ptr %14, align 8, !tbaa !6
  br label %36

34:                                               ; preds = %27
  %35 = load ptr, ptr %6, align 8, !tbaa !6
  store ptr %35, ptr %14, align 8, !tbaa !6
  br label %36

36:                                               ; preds = %34, %31
  %37 = load ptr, ptr %9, align 8, !tbaa !11
  %38 = call ptr @BN_CTX_get(ptr noundef %37)
  store ptr %38, ptr %13, align 8, !tbaa !6
  %39 = load ptr, ptr %14, align 8, !tbaa !6
  %40 = icmp eq ptr %39, null
  br i1 %40, label %44, label %41

41:                                               ; preds = %36
  %42 = load ptr, ptr %13, align 8, !tbaa !6
  %43 = icmp eq ptr %42, null
  br i1 %43, label %44, label %45

44:                                               ; preds = %41, %36
  br label %111

45:                                               ; preds = %41
  %46 = load ptr, ptr %13, align 8, !tbaa !6
  %47 = load ptr, ptr %7, align 8, !tbaa !6
  %48 = call ptr @BN_copy(ptr noundef %46, ptr noundef %47)
  %49 = icmp eq ptr %48, null
  br i1 %49, label %50, label %51

50:                                               ; preds = %45
  br label %111

51:                                               ; preds = %45
  %52 = load ptr, ptr %8, align 8, !tbaa !6
  %53 = call i32 @BN_num_bits(ptr noundef %52)
  store i32 %53, ptr %11, align 4, !tbaa !13
  %54 = load ptr, ptr %8, align 8, !tbaa !6
  %55 = call i32 @BN_is_odd(ptr noundef %54)
  %56 = icmp ne i32 %55, 0
  br i1 %56, label %57, label %64

57:                                               ; preds = %51
  %58 = load ptr, ptr %14, align 8, !tbaa !6
  %59 = load ptr, ptr %7, align 8, !tbaa !6
  %60 = call ptr @BN_copy(ptr noundef %58, ptr noundef %59)
  %61 = icmp eq ptr %60, null
  br i1 %61, label %62, label %63

62:                                               ; preds = %57
  br label %111

63:                                               ; preds = %57
  br label %70

64:                                               ; preds = %51
  %65 = load ptr, ptr %14, align 8, !tbaa !6
  %66 = call i32 @BN_one(ptr noundef %65)
  %67 = icmp ne i32 %66, 0
  br i1 %67, label %69, label %68

68:                                               ; preds = %64
  br label %111

69:                                               ; preds = %64
  br label %70

70:                                               ; preds = %69, %63
  store i32 1, ptr %10, align 4, !tbaa !13
  br label %71

71:                                               ; preds = %97, %70
  %72 = load i32, ptr %10, align 4, !tbaa !13
  %73 = load i32, ptr %11, align 4, !tbaa !13
  %74 = icmp slt i32 %72, %73
  br i1 %74, label %75, label %100

75:                                               ; preds = %71
  %76 = load ptr, ptr %13, align 8, !tbaa !6
  %77 = load ptr, ptr %13, align 8, !tbaa !6
  %78 = load ptr, ptr %9, align 8, !tbaa !11
  %79 = call i32 @BN_sqr(ptr noundef %76, ptr noundef %77, ptr noundef %78)
  %80 = icmp ne i32 %79, 0
  br i1 %80, label %82, label %81

81:                                               ; preds = %75
  br label %111

82:                                               ; preds = %75
  %83 = load ptr, ptr %8, align 8, !tbaa !6
  %84 = load i32, ptr %10, align 4, !tbaa !13
  %85 = call i32 @BN_is_bit_set(ptr noundef %83, i32 noundef %84)
  %86 = icmp ne i32 %85, 0
  br i1 %86, label %87, label %96

87:                                               ; preds = %82
  %88 = load ptr, ptr %14, align 8, !tbaa !6
  %89 = load ptr, ptr %14, align 8, !tbaa !6
  %90 = load ptr, ptr %13, align 8, !tbaa !6
  %91 = load ptr, ptr %9, align 8, !tbaa !11
  %92 = call i32 @BN_mul(ptr noundef %88, ptr noundef %89, ptr noundef %90, ptr noundef %91)
  %93 = icmp ne i32 %92, 0
  br i1 %93, label %95, label %94

94:                                               ; preds = %87
  br label %111

95:                                               ; preds = %87
  br label %96

96:                                               ; preds = %95, %82
  br label %97

97:                                               ; preds = %96
  %98 = load i32, ptr %10, align 4, !tbaa !13
  %99 = add nsw i32 %98, 1
  store i32 %99, ptr %10, align 4, !tbaa !13
  br label %71, !llvm.loop !18

100:                                              ; preds = %71
  %101 = load ptr, ptr %6, align 8, !tbaa !6
  %102 = load ptr, ptr %14, align 8, !tbaa !6
  %103 = icmp ne ptr %101, %102
  br i1 %103, label %104, label %110

104:                                              ; preds = %100
  %105 = load ptr, ptr %6, align 8, !tbaa !6
  %106 = load ptr, ptr %14, align 8, !tbaa !6
  %107 = call ptr @BN_copy(ptr noundef %105, ptr noundef %106)
  %108 = icmp ne ptr %107, null
  br i1 %108, label %110, label %109

109:                                              ; preds = %104
  br label %111

110:                                              ; preds = %104, %100
  store i32 1, ptr %12, align 4, !tbaa !13
  br label %111

111:                                              ; preds = %110, %109, %94, %81, %68, %62, %50, %44
  %112 = load ptr, ptr %9, align 8, !tbaa !11
  call void @BN_CTX_end(ptr noundef %112)
  %113 = load i32, ptr %12, align 4, !tbaa !13
  store i32 %113, ptr %5, align 4
  store i32 1, ptr %15, align 4
  br label %114

114:                                              ; preds = %111, %21
  call void @llvm.lifetime.end.p0(i64 8, ptr %14) #7
  call void @llvm.lifetime.end.p0(i64 8, ptr %13) #7
  call void @llvm.lifetime.end.p0(i64 4, ptr %12) #7
  call void @llvm.lifetime.end.p0(i64 4, ptr %11) #7
  call void @llvm.lifetime.end.p0(i64 4, ptr %10) #7
  %115 = load i32, ptr %5, align 4
  ret i32 %115
}