; Function Attrs: nounwind uwtable
define hidden range(i32 0, 2) i32 @BN_exp(ptr noundef %0, ptr noundef %1, ptr noundef %2, ptr noundef %3) local_unnamed_addr #0 {
  %5 = getelementptr inbounds nuw i8, ptr %2, i64 20
  %6 = load i32, ptr %5, align 4, !tbaa !6
  %7 = and i32 %6, 4
  %.not = icmp eq i32 %7, 0
  br i1 %.not, label %9, label %8

8:                                                ; preds = %4
  tail call void @ERR_put_error(i32 noundef 3, i32 noundef 0, i32 noundef 66, ptr noundef nonnull @.str, i32 noundef 145) #7
  br label %41

9:                                                ; preds = %4
  tail call void @BN_CTX_start(ptr noundef %3) #7
  %10 = icmp eq ptr %0, %1
  %11 = icmp eq ptr %0, %2
  %or.cond49 = or i1 %10, %11
  br i1 %or.cond49, label %12, label %14

12:                                               ; preds = %9
  %13 = tail call ptr @BN_CTX_get(ptr noundef %3) #7
  br label %14

14:                                               ; preds = %9, %12
  %.0 = phi ptr [ %13, %12 ], [ %0, %9 ]
  %15 = tail call ptr @BN_CTX_get(ptr noundef %3) #7
  %16 = icmp eq ptr %.0, null
  %17 = icmp eq ptr %15, null
  %or.cond = select i1 %16, i1 true, i1 %17
  br i1 %or.cond, label %.loopexit, label %18

18:                                               ; preds = %14
  %19 = tail call ptr @BN_copy(ptr noundef nonnull %15, ptr noundef %1) #7
  %20 = icmp eq ptr %19, null
  br i1 %20, label %.loopexit, label %21

21:                                               ; preds = %18
  %22 = tail call i32 @BN_num_bits(ptr noundef nonnull %2) #7
  %23 = tail call i32 @BN_is_odd(ptr noundef nonnull %2) #7
  %.not42 = icmp eq i32 %23, 0
  br i1 %.not42, label %27, label %24

24:                                               ; preds = %21
  %25 = tail call ptr @BN_copy(ptr noundef nonnull %.0, ptr noundef %1) #7
  %26 = icmp eq ptr %25, null
  br i1 %26, label %.loopexit, label %29

27:                                               ; preds = %21
  %28 = tail call i32 @BN_one(ptr noundef nonnull %.0) #7
  %.not43 = icmp eq i32 %28, 0
  br i1 %.not43, label %.loopexit, label %29

29:                                               ; preds = %27, %24
  %30 = icmp sgt i32 %22, 1
  br i1 %30, label %.lr.ph, label %._crit_edge

.lr.ph:                                           ; preds = %29, %36
  %.03950 = phi i32 [ %37, %36 ], [ 1, %29 ]
  %31 = tail call i32 @BN_sqr(ptr noundef nonnull %15, ptr noundef nonnull %15, ptr noundef %3) #7
  %.not46 = icmp eq i32 %31, 0
  br i1 %.not46, label %.loopexit, label %32

32:                                               ; preds = %.lr.ph
  %33 = tail call i32 @BN_is_bit_set(ptr noundef nonnull %2, i32 noundef %.03950) #7
  %.not47 = icmp eq i32 %33, 0
  br i1 %.not47, label %36, label %34

34:                                               ; preds = %32
  %35 = tail call i32 @BN_mul(ptr noundef %.0, ptr noundef %.0, ptr noundef nonnull %15, ptr noundef %3) #7
  %.not48 = icmp eq i32 %35, 0
  br i1 %.not48, label %.loopexit, label %36

36:                                               ; preds = %32, %34
  %37 = add nuw nsw i32 %.03950, 1
  %exitcond.not = icmp eq i32 %37, %22
  br i1 %exitcond.not, label %._crit_edge, label %.lr.ph, !llvm.loop !13

._crit_edge:                                      ; preds = %36, %29
  %.not44 = icmp eq ptr %0, %.0
  br i1 %.not44, label %40, label %38

38:                                               ; preds = %._crit_edge
  %39 = tail call ptr @BN_copy(ptr noundef %0, ptr noundef %.0) #7
  %.not45 = icmp eq ptr %39, null
  br i1 %.not45, label %.loopexit, label %40

40:                                               ; preds = %38, %._crit_edge
  br label %.loopexit

.loopexit:                                        ; preds = %34, %.lr.ph, %38, %27, %24, %18, %14, %40
  %.038 = phi i32 [ 0, %14 ], [ 0, %18 ], [ 0, %24 ], [ 1, %40 ], [ 0, %38 ], [ 0, %27 ], [ 0, %.lr.ph ], [ 0, %34 ]
  tail call void @BN_CTX_end(ptr noundef %3) #7
  br label %41

41:                                               ; preds = %.loopexit, %8
  %.037 = phi i32 [ 0, %8 ], [ %.038, %.loopexit ]
  ret i32 %.037
}